; Function Attrs: mustprogress nounwind memory(argmem: write, inaccessiblemem: write) uwtable
define noundef zeroext i1 @_ZN3re212re2_internal5ParseIN4absl7debian211string_viewEEEbPKcmPT_(ptr noundef %str, i64 noundef %n, ptr noundef writeonly %dest) local_unnamed_addr #15 {
entry:
  %cmp = icmp eq ptr %dest, null
  br i1 %cmp, label %return, label %if.end

if.end:                                           ; preds = %entry
  %cmp.i.i = icmp sgt i64 %n, -1
  br i1 %cmp.i.i, label %_ZN4absl7debian211string_viewC2EPKcm.exit, label %cond.false.i.i

cond.false.i.i:                                   ; preds = %if.end
  tail call void @llvm.trap()
  unreachable

_ZN4absl7debian211string_viewC2EPKcm.exit:        ; preds = %if.end
  store ptr %str, ptr %dest, align 8
  %ref.tmp.sroa.2.0.dest.sroa_idx = getelementptr inbounds nuw i8, ptr %dest, i64 8
  store i64 %n, ptr %ref.tmp.sroa.2.0.dest.sroa_idx, align 8
  br label %return

return:                                           ; preds = %entry, %_ZN4absl7debian211string_viewC2EPKcm.exit
  ret i1 true
}